target datalayout = "e-m:e-p270:32:32-p271:32:32-p272:64:64-i64:64-i128:128-f80:128-n8:16:32:64-S128"
target triple = "x86_64-pc-linux-gnu"

%struct.WindowClause = type { i32, ptr, ptr, ptr, ptr, i32, ptr, ptr, i32, i32, i32, i8, i8, i32, i8 }

; Function Attrs: nounwind uwtable
define internal zeroext i1 @_equalWindowClause(ptr noundef %0, ptr noundef %1) #0 {
  %3 = alloca i1, align 1
  %4 = alloca ptr, align 8
  %5 = alloca ptr, align 8
  store ptr %0, ptr %4, align 8
  store ptr %1, ptr %5, align 8
  br label %6

6:                                                ; preds = %2
  %7 = load ptr, ptr %4, align 8
  %8 = getelementptr inbounds nuw %struct.WindowClause, ptr %7, i32 0, i32 1
  %9 = load ptr, ptr %8, align 8
  %10 = icmp ne ptr %9, null
  br i1 %10, label %11, label %25

11:                                               ; preds = %6
  %12 = load ptr, ptr %5, align 8
  %13 = getelementptr inbounds nuw %struct.WindowClause, ptr %12, i32 0, i32 1
  %14 = load ptr, ptr %13, align 8
  %15 = icmp ne ptr %14, null
  br i1 %15, label %16, label %25

16:                                               ; preds = %11
  %17 = load ptr, ptr %4, align 8
  %18 = getelementptr inbounds nuw %struct.WindowClause, ptr %17, i32 0, i32 1
  %19 = load ptr, ptr %18, align 8
  %20 = load ptr, ptr %5, align 8
  %21 = getelementptr inbounds nuw %struct.WindowClause, ptr %20, i32 0, i32 1
  %22 = load ptr, ptr %21, align 8
  %23 = call i32 @strcmp(ptr noundef %19, ptr noundef %22) #8
  %24 = icmp eq i32 %23, 0
  br i1 %24, label %34, label %33

25:                                               ; preds = %11, %6
  %26 = load ptr, ptr %4, align 8
  %27 = getelementptr inbounds nuw %struct.WindowClause, ptr %26, i32 0, i32 1
  %28 = load ptr, ptr %27, align 8
  %29 = load ptr, ptr %5, align 8
  %30 = getelementptr inbounds nuw %struct.WindowClause, ptr %29, i32 0, i32 1
  %31 = load ptr, ptr %30, align 8
  %32 = icmp eq ptr %28, %31
  br i1 %32, label %34, label %33

33:                                               ; preds = %25, %16
  store i1 false, ptr %3, align 1
  br label %210

34:                                               ; preds = %25, %16
  br label %35

35:                                               ; preds = %34
  br label %36

36:                                               ; preds = %35
  %37 = load ptr, ptr %4, align 8
  %38 = getelementptr inbounds nuw %struct.WindowClause, ptr %37, i32 0, i32 2
  %39 = load ptr, ptr %38, align 8
  %40 = icmp ne ptr %39, null
  br i1 %40, label %41, label %55

41:                                               ; preds = %36
  %42 = load ptr, ptr %5, align 8
  %43 = getelementptr inbounds nuw %struct.WindowClause, ptr %42, i32 0, i32 2
  %44 = load ptr, ptr %43, align 8
  %45 = icmp ne ptr %44, null
  br i1 %45, label %46, label %55

46:                                               ; preds = %41
  %47 = load ptr, ptr %4, align 8
  %48 = getelementptr inbounds nuw %struct.WindowClause, ptr %47, i32 0, i32 2
  %49 = load ptr, ptr %48, align 8
  %50 = load ptr, ptr %5, align 8
  %51 = getelementptr inbounds nuw %struct.WindowClause, ptr %50, i32 0, i32 2
  %52 = load ptr, ptr %51, align 8
  %53 = call i32 @strcmp(ptr noundef %49, ptr noundef %52) #8
  %54 = icmp eq i32 %53, 0
  br i1 %54, label %64, label %63

55:                                               ; preds = %41, %36
  %56 = load ptr, ptr %4, align 8
  %57 = getelementptr inbounds nuw %struct.WindowClause, ptr %56, i32 0, i32 2
  %58 = load ptr, ptr %57, align 8
  %59 = load ptr, ptr %5, align 8
  %60 = getelementptr inbounds nuw %struct.WindowClause, ptr %59, i32 0, i32 2
  %61 = load ptr, ptr %60, align 8
  %62 = icmp eq ptr %58, %61
  br i1 %62, label %64, label %63

63:                                               ; preds = %55, %46
  store i1 false, ptr %3, align 1
  br label %210

64:                                               ; preds = %55, %46
  br label %65

65:                                               ; preds = %64
  br label %66

66:                                               ; preds = %65
  %67 = load ptr, ptr %4, align 8
  %68 = getelementptr inbounds nuw %struct.WindowClause, ptr %67, i32 0, i32 3
  %69 = load ptr, ptr %68, align 8
  %70 = load ptr, ptr %5, align 8
  %71 = getelementptr inbounds nuw %struct.WindowClause, ptr %70, i32 0, i32 3
  %72 = load ptr, ptr %71, align 8
  %73 = call zeroext i1 @equal(ptr noundef %69, ptr noundef %72)
  br i1 %73, label %75, label %74

74:                                               ; preds = %66
  store i1 false, ptr %3, align 1
  br label %210

75:                                               ; preds = %66
  br label %76

76:                                               ; preds = %75
  br label %77

77:                                               ; preds = %76
  %78 = load ptr, ptr %4, align 8
  %79 = getelementptr inbounds nuw %struct.WindowClause, ptr %78, i32 0, i32 4
  %80 = load ptr, ptr %79, align 8
  %81 = load ptr, ptr %5, align 8
  %82 = getelementptr inbounds nuw %struct.WindowClause, ptr %81, i32 0, i32 4
  %83 = load ptr, ptr %82, align 8
  %84 = call zeroext i1 @equal(ptr noundef %80, ptr noundef %83)
  br i1 %84, label %86, label %85

85:                                               ; preds = %77
  store i1 false, ptr %3, align 1
  br label %210

86:                                               ; preds = %77
  br label %87

87:                                               ; preds = %86
  br label %88

88:                                               ; preds = %87
  %89 = load ptr, ptr %4, align 8
  %90 = getelementptr inbounds nuw %struct.WindowClause, ptr %89, i32 0, i32 5
  %91 = load i32, ptr %90, align 8
  %92 = load ptr, ptr %5, align 8
  %93 = getelementptr inbounds nuw %struct.WindowClause, ptr %92, i32 0, i32 5
  %94 = load i32, ptr %93, align 8
  %95 = icmp ne i32 %91, %94
  br i1 %95, label %96, label %97

96:                                               ; preds = %88
  store i1 false, ptr %3, align 1
  br label %210

97:                                               ; preds = %88
  br label %98

98:                                               ; preds = %97
  br label %99

99:                                               ; preds = %98
  %100 = load ptr, ptr %4, align 8
  %101 = getelementptr inbounds nuw %struct.WindowClause, ptr %100, i32 0, i32 6
  %102 = load ptr, ptr %101, align 8
  %103 = load ptr, ptr %5, align 8
  %104 = getelementptr inbounds nuw %struct.WindowClause, ptr %103, i32 0, i32 6
  %105 = load ptr, ptr %104, align 8
  %106 = call zeroext i1 @equal(ptr noundef %102, ptr noundef %105)
  br i1 %106, label %108, label %107

107:                                              ; preds = %99
  store i1 false, ptr %3, align 1
  br label %210

108:                                              ; preds = %99
  br label %109

109:                                              ; preds = %108
  br label %110

110:                                              ; preds = %109
  %111 = load ptr, ptr %4, align 8
  %112 = getelementptr inbounds nuw %struct.WindowClause, ptr %111, i32 0, i32 7
  %113 = load ptr, ptr %112, align 8
  %114 = load ptr, ptr %5, align 8
  %115 = getelementptr inbounds nuw %struct.WindowClause, ptr %114, i32 0, i32 7
  %116 = load ptr, ptr %115, align 8
  %117 = call zeroext i1 @equal(ptr noundef %113, ptr noundef %116)
  br i1 %117, label %119, label %118

118:                                              ; preds = %110
  store i1 false, ptr %3, align 1
  br label %210

119:                                              ; preds = %110
  br label %120

120:                                              ; preds = %119
  br label %121

121:                                              ; preds = %120
  %122 = load ptr, ptr %4, align 8
  %123 = getelementptr inbounds nuw %struct.WindowClause, ptr %122, i32 0, i32 8
  %124 = load i32, ptr %123, align 8
  %125 = load ptr, ptr %5, align 8
  %126 = getelementptr inbounds nuw %struct.WindowClause, ptr %125, i32 0, i32 8
  %127 = load i32, ptr %126, align 8
  %128 = icmp ne i32 %124, %127
  br i1 %128, label %129, label %130

129:                                              ; preds = %121
  store i1 false, ptr %3, align 1
  br label %210

130:                                              ; preds = %121
  br label %131

131:                                              ; preds = %130
  br label %132

132:                                              ; preds = %131
  %133 = load ptr, ptr %4, align 8
  %134 = getelementptr inbounds nuw %struct.WindowClause, ptr %133, i32 0, i32 9
  %135 = load i32, ptr %134, align 4
  %136 = load ptr, ptr %5, align 8
  %137 = getelementptr inbounds nuw %struct.WindowClause, ptr %136, i32 0, i32 9
  %138 = load i32, ptr %137, align 4
  %139 = icmp ne i32 %135, %138
  br i1 %139, label %140, label %141

140:                                              ; preds = %132
  store i1 false, ptr %3, align 1
  br label %210

141:                                              ; preds = %132
  br label %142

142:                                              ; preds = %141
  br label %143

143:                                              ; preds = %142
  %144 = load ptr, ptr %4, align 8
  %145 = getelementptr inbounds nuw %struct.WindowClause, ptr %144, i32 0, i32 10
  %146 = load i32, ptr %145, align 8
  %147 = load ptr, ptr %5, align 8
  %148 = getelementptr inbounds nuw %struct.WindowClause, ptr %147, i32 0, i32 10
  %149 = load i32, ptr %148, align 8
  %150 = icmp ne i32 %146, %149
  br i1 %150, label %151, label %152

151:                                              ; preds = %143
  store i1 false, ptr %3, align 1
  br label %210

152:                                              ; preds = %143
  br label %153

153:                                              ; preds = %152
  br label %154

154:                                              ; preds = %153
  %155 = load ptr, ptr %4, align 8
  %156 = getelementptr inbounds nuw %struct.WindowClause, ptr %155, i32 0, i32 11
  %157 = load i8, ptr %156, align 4, !range !4, !noundef !5
  %158 = trunc i8 %157 to i1
  %159 = zext i1 %158 to i32
  %160 = load ptr, ptr %5, align 8
  %161 = getelementptr inbounds nuw %struct.WindowClause, ptr %160, i32 0, i32 11
  %162 = load i8, ptr %161, align 4, !range !4, !noundef !5
  %163 = trunc i8 %162 to i1
  %164 = zext i1 %163 to i32
  %165 = icmp ne i32 %159, %164
  br i1 %165, label %166, label %167

166:                                              ; preds = %154
  store i1 false, ptr %3, align 1
  br label %210

167:                                              ; preds = %154
  br label %168

168:                                              ; preds = %167
  br label %169

169:                                              ; preds = %168
  %170 = load ptr, ptr %4, align 8
  %171 = getelementptr inbounds nuw %struct.WindowClause, ptr %170, i32 0, i32 12
  %172 = load i8, ptr %171, align 1, !range !4, !noundef !5
  %173 = trunc i8 %172 to i1
  %174 = zext i1 %173 to i32
  %175 = load ptr, ptr %5, align 8
  %176 = getelementptr inbounds nuw %struct.WindowClause, ptr %175, i32 0, i32 12
  %177 = load i8, ptr %176, align 1, !range !4, !noundef !5
  %178 = trunc i8 %177 to i1
  %179 = zext i1 %178 to i32
  %180 = icmp ne i32 %174, %179
  br i1 %180, label %181, label %182

181:                                              ; preds = %169
  store i1 false, ptr %3, align 1
  br label %210

182:                                              ; preds = %169
  br label %183

183:                                              ; preds = %182
  br label %184

184:                                              ; preds = %183
  %185 = load ptr, ptr %4, align 8
  %186 = getelementptr inbounds nuw %struct.WindowClause, ptr %185, i32 0, i32 13
  %187 = load i32, ptr %186, align 8
  %188 = load ptr, ptr %5, align 8
  %189 = getelementptr inbounds nuw %struct.WindowClause, ptr %188, i32 0, i32 13
  %190 = load i32, ptr %189, align 8
  %191 = icmp ne i32 %187, %190
  br i1 %191, label %192, label %193

192:                                              ; preds = %184
  store i1 false, ptr %3, align 1
  br label %210

193:                                              ; preds = %184
  br label %194

194:                                              ; preds = %193
  br label %195

195:                                              ; preds = %194
  %196 = load ptr, ptr %4, align 8
  %197 = getelementptr inbounds nuw %struct.WindowClause, ptr %196, i32 0, i32 14
  %198 = load i8, ptr %197, align 4, !range !4, !noundef !5
  %199 = trunc i8 %198 to i1
  %200 = zext i1 %199 to i32
  %201 = load ptr, ptr %5, align 8
  %202 = getelementptr inbounds nuw %struct.WindowClause, ptr %201, i32 0, i32 14
  %203 = load i8, ptr %202, align 4, !range !4, !noundef !5
  %204 = trunc i8 %203 to i1
  %205 = zext i1 %204 to i32
  %206 = icmp ne i32 %200, %205
  br i1 %206, label %207, label %208

207:                                              ; preds = %195
  store i1 false, ptr %3, align 1
  br label %210

208:                                              ; preds = %195
  br label %209

209:                                              ; preds = %208
  store i1 true, ptr %3, align 1
  br label %210

210:                                              ; preds = %209, %207, %192, %181, %166, %151, %140, %129, %118, %107, %96, %85, %74, %63, %33
  %211 = load i1, ptr %3, align 1
  ret i1 %211
}