; Function Attrs: nounwind uwtable
define internal fastcc noundef zeroext i1 @_equalWindowClause(ptr noundef nonnull readonly captures(none) %0, ptr noundef nonnull readonly captures(none) %1) unnamed_addr #0 {
  %3 = getelementptr inbounds nuw i8, ptr %0, i64 8
  %4 = load ptr, ptr %3, align 8
  %.not = icmp eq ptr %4, null
  %.phi.trans.insert = getelementptr inbounds nuw i8, ptr %1, i64 8
  %.pre = load ptr, ptr %.phi.trans.insert, align 8
  br i1 %.not, label %9, label %5

5:                                                ; preds = %2
  %.not41 = icmp eq ptr %.pre, null
  br i1 %.not41, label %.thread, label %6

6:                                                ; preds = %5
  %7 = tail call i32 @strcmp(ptr noundef nonnull dereferenceable(1) %4, ptr noundef nonnull dereferenceable(1) %.pre) #11
  %8 = icmp eq i32 %7, 0
  br i1 %8, label %11, label %.thread

9:                                                ; preds = %2
  %10 = icmp eq ptr %4, %.pre
  br i1 %10, label %11, label %.thread

11:                                               ; preds = %9, %6
  %12 = getelementptr inbounds nuw i8, ptr %0, i64 16
  %13 = load ptr, ptr %12, align 8
  %.not42 = icmp eq ptr %13, null
  %.phi.trans.insert53 = getelementptr inbounds nuw i8, ptr %1, i64 16
  %.pre54 = load ptr, ptr %.phi.trans.insert53, align 8
  br i1 %.not42, label %18, label %14

14:                                               ; preds = %11
  %.not43 = icmp eq ptr %.pre54, null
  br i1 %.not43, label %.thread, label %15

15:                                               ; preds = %14
  %16 = tail call i32 @strcmp(ptr noundef nonnull dereferenceable(1) %13, ptr noundef nonnull dereferenceable(1) %.pre54) #11
  %17 = icmp eq i32 %16, 0
  br i1 %17, label %20, label %.thread

18:                                               ; preds = %11
  %19 = icmp eq ptr %13, %.pre54
  br i1 %19, label %20, label %.thread

20:                                               ; preds = %18, %15
  %21 = getelementptr inbounds nuw i8, ptr %0, i64 24
  %22 = load ptr, ptr %21, align 8
  %23 = getelementptr inbounds nuw i8, ptr %1, i64 24
  %24 = load ptr, ptr %23, align 8
  %25 = tail call zeroext i1 @equal(ptr noundef %22, ptr noundef %24)
  br i1 %25, label %26, label %.thread

26:                                               ; preds = %20
  %27 = getelementptr inbounds nuw i8, ptr %0, i64 32
  %28 = load ptr, ptr %27, align 8
  %29 = getelementptr inbounds nuw i8, ptr %1, i64 32
  %30 = load ptr, ptr %29, align 8
  %31 = tail call zeroext i1 @equal(ptr noundef %28, ptr noundef %30)
  br i1 %31, label %32, label %.thread

32:                                               ; preds = %26
  %33 = getelementptr inbounds nuw i8, ptr %0, i64 40
  %34 = load i32, ptr %33, align 8
  %35 = getelementptr inbounds nuw i8, ptr %1, i64 40
  %36 = load i32, ptr %35, align 8
  %.not44 = icmp eq i32 %34, %36
  br i1 %.not44, label %37, label %.thread

37:                                               ; preds = %32
  %38 = getelementptr inbounds nuw i8, ptr %0, i64 48
  %39 = load ptr, ptr %38, align 8
  %40 = getelementptr inbounds nuw i8, ptr %1, i64 48
  %41 = load ptr, ptr %40, align 8
  %42 = tail call zeroext i1 @equal(ptr noundef %39, ptr noundef %41)
  br i1 %42, label %43, label %.thread

43:                                               ; preds = %37
  %44 = getelementptr inbounds nuw i8, ptr %0, i64 56
  %45 = load ptr, ptr %44, align 8
  %46 = getelementptr inbounds nuw i8, ptr %1, i64 56
  %47 = load ptr, ptr %46, align 8
  %48 = tail call zeroext i1 @equal(ptr noundef %45, ptr noundef %47)
  br i1 %48, label %49, label %.thread

49:                                               ; preds = %43
  %50 = getelementptr inbounds nuw i8, ptr %0, i64 64
  %51 = load i32, ptr %50, align 8
  %52 = getelementptr inbounds nuw i8, ptr %1, i64 64
  %53 = load i32, ptr %52, align 8
  %.not45 = icmp eq i32 %51, %53
  br i1 %.not45, label %54, label %.thread

54:                                               ; preds = %49
  %55 = getelementptr inbounds nuw i8, ptr %0, i64 68
  %56 = load i32, ptr %55, align 4
  %57 = getelementptr inbounds nuw i8, ptr %1, i64 68
  %58 = load i32, ptr %57, align 4
  %.not46 = icmp eq i32 %56, %58
  br i1 %.not46, label %59, label %.thread

59:                                               ; preds = %54
  %60 = getelementptr inbounds nuw i8, ptr %0, i64 72
  %61 = load i32, ptr %60, align 8
  %62 = getelementptr inbounds nuw i8, ptr %1, i64 72
  %63 = load i32, ptr %62, align 8
  %.not47 = icmp eq i32 %61, %63
  br i1 %.not47, label %64, label %.thread

64:                                               ; preds = %59
  %65 = getelementptr inbounds nuw i8, ptr %0, i64 76
  %66 = load i8, ptr %65, align 4, !range !4, !noundef !5
  %67 = getelementptr inbounds nuw i8, ptr %1, i64 76
  %68 = load i8, ptr %67, align 4, !range !4, !noundef !5
  %.not48 = icmp eq i8 %66, %68
  br i1 %.not48, label %69, label %.thread

69:                                               ; preds = %64
  %70 = getelementptr inbounds nuw i8, ptr %0, i64 77
  %71 = load i8, ptr %70, align 1, !range !4, !noundef !5
  %72 = getelementptr inbounds nuw i8, ptr %1, i64 77
  %73 = load i8, ptr %72, align 1, !range !4, !noundef !5
  %.not49 = icmp eq i8 %71, %73
  br i1 %.not49, label %74, label %.thread

74:                                               ; preds = %69
  %75 = getelementptr inbounds nuw i8, ptr %0, i64 80
  %76 = load i32, ptr %75, align 8
  %77 = getelementptr inbounds nuw i8, ptr %1, i64 80
  %78 = load i32, ptr %77, align 8
  %.not50 = icmp eq i32 %76, %78
  br i1 %.not50, label %79, label %.thread

79:                                               ; preds = %74
  %80 = getelementptr inbounds nuw i8, ptr %0, i64 84
  %81 = load i8, ptr %80, align 4, !range !4, !noundef !5
  %82 = getelementptr inbounds nuw i8, ptr %1, i64 84
  %83 = load i8, ptr %82, align 4, !range !4, !noundef !5
  %.not51 = icmp eq i8 %81, %83
  br label %.thread

.thread:                                          ; preds = %14, %5, %79, %74, %69, %64, %59, %54, %49, %43, %37, %32, %26, %20, %15, %18, %6, %9
  %.0 = phi i1 [ false, %9 ], [ false, %6 ], [ false, %18 ], [ false, %15 ], [ false, %20 ], [ false, %26 ], [ false, %32 ], [ false, %37 ], [ false, %43 ], [ false, %49 ], [ false, %54 ], [ false, %59 ], [ false, %64 ], [ false, %69 ], [ false, %74 ], [ %.not51, %79 ], [ false, %5 ], [ false, %14 ]
  ret i1 %.0
}